target datalayout = "e-m:e-p270:32:32-p271:32:32-p272:64:64-i64:64-i128:128-f80:128-n8:16:32:64-S128"
target triple = "x86_64-pc-linux-gnu"

%class.State = type { [315 x i32], [315 x i16], i32, ptr, [2 x ptr] }

; Function Attrs: mustprogress nounwind uwtable
define hidden void @_ZN5State14_sub_Op_RoundFEPK4Node(ptr noundef nonnull align 8 dereferenceable(1920) %0, ptr noundef %1) #1 align 2 {
  %3 = alloca ptr, align 8
  %4 = alloca ptr, align 8
  %5 = alloca i32, align 4
  store ptr %0, ptr %3, align 8
  store ptr %1, ptr %4, align 8
  %6 = load ptr, ptr %3, align 8
  %7 = getelementptr inbounds %class.State, ptr %6, i32 0, i32 4
  %8 = getelementptr inbounds [2 x ptr], ptr %7, i64 0, i64 0
  %9 = load ptr, ptr %8, align 8
  %10 = icmp ne ptr %9, null
  br i1 %10, label %11, label %75

11:                                               ; preds = %2
  %12 = getelementptr inbounds %class.State, ptr %6, i32 0, i32 4
  %13 = getelementptr inbounds [2 x ptr], ptr %12, i64 0, i64 0
  %14 = load ptr, ptr %13, align 8
  %15 = getelementptr inbounds %class.State, ptr %14, i32 0, i32 1
  %16 = getelementptr inbounds [315 x i16], ptr %15, i64 0, i64 78
  %17 = load i16, ptr %16, align 4
  %18 = zext i16 %17 to i32
  %19 = and i32 %18, 1
  %20 = icmp ne i32 %19, 0
  br i1 %20, label %21, label %75

21:                                               ; preds = %11
  %22 = getelementptr inbounds %class.State, ptr %6, i32 0, i32 4
  %23 = getelementptr inbounds [2 x ptr], ptr %22, i64 0, i64 0
  %24 = load ptr, ptr %23, align 8
  %25 = getelementptr inbounds %class.State, ptr %24, i32 0, i32 0
  %26 = getelementptr inbounds [315 x i32], ptr %25, i64 0, i64 78
  %27 = load i32, ptr %26, align 8
  %28 = add i32 %27, 100
  store i32 %28, ptr %5, align 4
  %29 = load i32, ptr %5, align 4
  %30 = getelementptr inbounds %class.State, ptr %6, i32 0, i32 0
  %31 = getelementptr inbounds [315 x i32], ptr %30, i64 0, i64 49
  store i32 %29, ptr %31, align 4
  %32 = getelementptr inbounds %class.State, ptr %6, i32 0, i32 1
  %33 = getelementptr inbounds [315 x i16], ptr %32, i64 0, i64 49
  store i16 1987, ptr %33, align 2
  %34 = load i32, ptr %5, align 4
  %35 = add i32 %34, 100
  %36 = getelementptr inbounds %class.State, ptr %6, i32 0, i32 0
  %37 = getelementptr inbounds [315 x i32], ptr %36, i64 0, i64 105
  store i32 %35, ptr %37, align 4
  %38 = getelementptr inbounds %class.State, ptr %6, i32 0, i32 1
  %39 = getelementptr inbounds [315 x i16], ptr %38, i64 0, i64 105
  store i16 631, ptr %39, align 2
  %40 = load i32, ptr %5, align 4
  %41 = getelementptr inbounds %class.State, ptr %6, i32 0, i32 0
  %42 = getelementptr inbounds [315 x i32], ptr %41, i64 0, i64 50
  store i32 %40, ptr %42, align 8
  %43 = getelementptr inbounds %class.State, ptr %6, i32 0, i32 1
  %44 = getelementptr inbounds [315 x i16], ptr %43, i64 0, i64 50
  store i16 1987, ptr %44, align 4
  %45 = load i32, ptr %5, align 4
  %46 = getelementptr inbounds %class.State, ptr %6, i32 0, i32 0
  %47 = getelementptr inbounds [315 x i32], ptr %46, i64 0, i64 56
  store i32 %45, ptr %47, align 8
  %48 = getelementptr inbounds %class.State, ptr %6, i32 0, i32 1
  %49 = getelementptr inbounds [315 x i16], ptr %48, i64 0, i64 56
  store i16 1987, ptr %49, align 4
  %50 = load i32, ptr %5, align 4
  %51 = getelementptr inbounds %class.State, ptr %6, i32 0, i32 0
  %52 = getelementptr inbounds [315 x i32], ptr %51, i64 0, i64 51
  store i32 %50, ptr %52, align 4
  %53 = getelementptr inbounds %class.State, ptr %6, i32 0, i32 1
  %54 = getelementptr inbounds [315 x i16], ptr %53, i64 0, i64 51
  store i16 1987, ptr %54, align 2
  %55 = load i32, ptr %5, align 4
  %56 = getelementptr inbounds %class.State, ptr %6, i32 0, i32 0
  %57 = getelementptr inbounds [315 x i32], ptr %56, i64 0, i64 55
  store i32 %55, ptr %57, align 4
  %58 = getelementptr inbounds %class.State, ptr %6, i32 0, i32 1
  %59 = getelementptr inbounds [315 x i16], ptr %58, i64 0, i64 55
  store i16 1987, ptr %59, align 2
  %60 = load i32, ptr %5, align 4
  %61 = getelementptr inbounds %class.State, ptr %6, i32 0, i32 0
  %62 = getelementptr inbounds [315 x i32], ptr %61, i64 0, i64 52
  store i32 %60, ptr %62, align 8
  %63 = getelementptr inbounds %class.State, ptr %6, i32 0, i32 1
  %64 = getelementptr inbounds [315 x i16], ptr %63, i64 0, i64 52
  store i16 1987, ptr %64, align 4
  %65 = load i32, ptr %5, align 4
  %66 = getelementptr inbounds %class.State, ptr %6, i32 0, i32 0
  %67 = getelementptr inbounds [315 x i32], ptr %66, i64 0, i64 53
  store i32 %65, ptr %67, align 4
  %68 = getelementptr inbounds %class.State, ptr %6, i32 0, i32 1
  %69 = getelementptr inbounds [315 x i16], ptr %68, i64 0, i64 53
  store i16 1987, ptr %69, align 2
  %70 = load i32, ptr %5, align 4
  %71 = getelementptr inbounds %class.State, ptr %6, i32 0, i32 0
  %72 = getelementptr inbounds [315 x i32], ptr %71, i64 0, i64 54
  store i32 %70, ptr %72, align 8
  %73 = getelementptr inbounds %class.State, ptr %6, i32 0, i32 1
  %74 = getelementptr inbounds [315 x i16], ptr %73, i64 0, i64 54
  store i16 1987, ptr %74, align 4
  br label %75

75:                                               ; preds = %21, %11, %2
  ret void
}