; Function Attrs: mustprogress nofree norecurse nosync nounwind willreturn memory(read, argmem: readwrite, inaccessiblemem: none) uwtable
define hidden void @_ZN5State14_sub_Op_RoundFEPK4Node(ptr nocapture noundef nonnull align 8 dereferenceable(1920) %0, ptr nocapture readnone %1) local_unnamed_addr #1 align 2 {
  %3 = getelementptr inbounds i8, ptr %0, i64 1904
  %4 = load ptr, ptr %3, align 8
  %.not = icmp eq ptr %4, null
  br i1 %.not, label %21, label %5

5:                                                ; preds = %2
  %6 = getelementptr inbounds i8, ptr %4, i64 1416
  %7 = load i16, ptr %6, align 4
  %8 = and i16 %7, 1
  %.not9 = icmp eq i16 %8, 0
  br i1 %.not9, label %21, label %9

9:                                                ; preds = %5
  %10 = getelementptr inbounds i8, ptr %4, i64 312
  %11 = load i32, ptr %10, align 8
  %12 = add i32 %11, 100
  %13 = getelementptr inbounds i8, ptr %0, i64 196
  %14 = getelementptr inbounds i8, ptr %0, i64 1358
  %15 = add i32 %11, 200
  %16 = getelementptr inbounds i8, ptr %0, i64 420
  store i32 %15, ptr %16, align 4
  %17 = getelementptr inbounds i8, ptr %0, i64 1470
  store i16 631, ptr %17, align 2
  %18 = insertelement <4 x i32> poison, i32 %12, i64 0
  %19 = shufflevector <4 x i32> %18, <4 x i32> poison, <4 x i32> zeroinitializer
  store <4 x i32> %19, ptr %13, align 4
  %20 = getelementptr inbounds i8, ptr %0, i64 212
  store <4 x i32> %19, ptr %20, align 4
  store <8 x i16> <i16 1987, i16 1987, i16 1987, i16 1987, i16 1987, i16 1987, i16 1987, i16 1987>, ptr %14, align 2
  br label %21

21:                                               ; preds = %9, %5, %2
  ret void
}